Certificate:
    Data:
        Version: 3 (0x2)
        Serial Number: 1 (0x1)
    Signature Algorithm: sha256WithRSAEncryption
        Issuer: C=DE, ST=NRW, L=Duesseldorf, O=WIR-MACHEN-DAS, CN=VPN-Server1-Debian/name=VPN-Server1/emailAddress=noc@wir-machen-d.as
        Validity
            Not Before: May 21 07:47:18 2015 GMT
            Not After : May 18 07:47:18 2025 GMT
        Subject: C=DE, ST=NRW, L=Duesseldorf, O=WIR-MACHEN-DAS, CN=clientAndroid/name=clientAndroid/emailAddress=noc@wir-machen-d.as
        Subject Public Key Info:
            Public Key Algorithm: rsaEncryption
                Public-Key: (2048 bit)
                Modulus:
                    00:d0:57:4c:c5:12:b6:6a:33:9b:74:41:1d:1a:6d:
                    55:5d:29:f4:14:63:b2:d5:0f:8e:8e:53:11:cd:5d:
                    b6:bd:28:1d:62:3a:ab:15:38:24:61:1d:15:3f:ac:
                    1e:30:c4:b5:cd:9f:45:6a:ca:ed:9b:17:cb:cd:a9:
                    fb:cb:5d:cc:47:ae:2f:d0:68:56:e1:b8:83:bf:e1:
                    3d:d6:c6:2c:00:cf:4e:6e:31:f5:50:9b:88:c7:c0:
                    2b:0a:0e:fd:47:6d:8e:5d:5b:20:6b:ff:c5:f1:8f:
                    81:07:67:14:03:05:8c:03:c4:fc:e6:bc:13:d9:51:
                    e3:4a:fb:da:8b:42:3f:c2:d3:0c:a5:8a:fd:68:7b:
                    8f:06:34:74:0a:f7:13:86:8e:0e:4a:11:d8:45:7c:
                    21:20:a3:f0:1c:80:9c:f4:31:75:32:91:33:32:b6:
                    af:1e:ad:38:0f:e3:cd:c8:25:46:fa:c5:5a:69:a8:
                    73:5b:31:54:72:39:b8:c6:5f:1b:63:6c:23:d8:53:
                    99:90:b6:65:c0:6e:74:f7:b0:7e:a6:96:3a:94:2c:
                    ec:0f:3d:1c:82:82:4b:33:86:6f:04:8d:f3:62:dc:
                    05:5e:54:eb:33:84:61:58:c5:8d:5d:71:d0:b2:f7:
                    81:db:89:db:47:6f:ae:4a:58:4e:e0:a4:88:46:ae:
                    cf:63
                Exponent: 65537 (0x10001)
        X509v3 extensions:
            X509v3 Basic Constraints: 
                CA:FALSE
            Netscape Comment: 
                Easy-RSA Generated Certificate
            X509v3 Subject Key Identifier: 
                74:0E:09:C4:46:20:98:84:C8:F1:7B:BA:08:AF:63:7E:0D:F9:5A:AE
            X509v3 Authority Key Identifier: 
                keyid:C8:A7:C9:33:61:E3:BA:E4:DA:74:09:9C:81:E4:DD:6A:2F:03:BA:91
                DirName:/C=DE/ST=NRW/L=Duesseldorf/O=WIR-MACHEN-DAS/CN=VPN-Server1-Debian/name=VPN-Server1/emailAddress=noc@wir-machen-d.as
                serial:AB:BB:F6:1C:96:DF:B3:E2

            X509v3 Extended Key Usage: 
                TLS Web Client Authentication
            X509v3 Key Usage: 
                Digital Signature
            X509v3 Subject Alternative Name: 
                DNS:clientAndroid
    Signature Algorithm: sha256WithRSAEncryption
         7e:be:0b:24:52:d3:5b:bb:f7:74:cb:e1:e0:1b:9e:1a:94:8f:
         cc:02:1f:c2:66:0c:31:ec:0f:45:9d:15:c3:d6:a4:df:1a:d4:
         ac:d3:b0:a9:1a:1c:fa:8e:9a:16:09:99:8d:ff:ee:48:2e:ee:
         03:75:af:bf:7b:37:59:5f:4a:3c:27:de:cb:b6:42:e7:47:2c:
         a6:2f:d7:b7:ae:a3:6d:b1:76:00:00:82:b4:9e:e1:76:58:cb:
         b2:3e:07:ae:79:53:83:f2:e0:ba:9f:31:a5:dc:21:cd:c1:7f:
         94:65:f9:a9:fe:10:38:d6:bc:51:e6:37:80:3e:b9:64:f4:34:
         8a:bf:dc:b0:2c:2f:d5:e1:23:05:57:74:34:e3:af:ae:dc:d2:
         5c:a8:7d:c5:27:ae:54:86:ac:d5:c3:94:1e:28:95:0e:14:1e:
         01:7d:64:a0:88:8c:46:ec:92:91:fc:dd:0c:a9:cf:8e:c5:b8:
         90:27:15:79:50:89:e1:d7:e8:70:c7:66:81:57:85:f0:cc:4f:
         6f:b9:1c:b8:52:7b:07:84:52:24:41:b6:7b:b4:31:ca:94:a0:
         b8:f2:0f:8c:0d:68:bd:ed:e4:e8:ec:63:73:c9:15:50:f8:e1:
         52:09:07:fe:c3:2e:70:d8:40:29:2d:dd:3d:5f:98:e7:1d:7f:
         b1:6e:50:55
-----BEGIN CERTIFICATE-----
MIIFMDCCBBigAwIBAgIBATANBgkqhkiG9w0BAQsFADCBoTELMAkGA1UEBhMCREUx
DDAKBgNVBAgTA05SVzEUMBIGA1UEBxMLRHVlc3NlbGRvcmYxFzAVBgNVBAoTDldJ
Ui1NQUNIRU4tREFTMRswGQYDVQQDExJWUE4tU2VydmVyMS1EZWJpYW4xFDASBgNV
BCkTC1ZQTi1TZXJ2ZXIxMSIwIAYJKoZIhvcNAQkBFhNub2NAd2lyLW1hY2hlbi1k
LmFzMB4XDTE1MDUyMTA3NDcxOFoXDTI1MDUxODA3NDcxOFowgZ4xCzAJBgNVBAYT
AkRFMQwwCgYDVQQIEwNOUlcxFDASBgNVBAcTC0R1ZXNzZWxkb3JmMRcwFQYDVQQK
Ew5XSVItTUFDSEVOLURBUzEWMBQGA1UEAxMNY2xpZW50QW5kcm9pZDEWMBQGA1UE
KRMNY2xpZW50QW5kcm9pZDEiMCAGCSqGSIb3DQEJARYTbm9jQHdpci1tYWNoZW4t
ZC5hczCCASIwDQYJKoZIhvcNAQEBBQADggEPADCCAQoCggEBANBXTMUStmozm3RB
HRptVV0p9BRjstUPjo5TEc1dtr0oHWI6qxU4JGEdFT+sHjDEtc2fRWrK7ZsXy82p
+8tdzEeuL9BoVuG4g7/hPdbGLADPTm4x9VCbiMfAKwoO/Udtjl1bIGv/xfGPgQdn
FAMFjAPE/Oa8E9lR40r72otCP8LTDKWK/Wh7jwY0dAr3E4aODkoR2EV8ISCj8ByA
nPQxdTKRMzK2rx6tOA/jzcglRvrFWmmoc1sxVHI5uMZfG2NsI9hTmZC2ZcBudPew
fqaWOpQs7A89HIKCSzOGbwSN82LcBV5U6zOEYVjFjV1x0LL3gduJ20dvrkpYTuCk
iEauz2MCAwEAAaOCAXIwggFuMAkGA1UdEwQCMAAwLQYJYIZIAYb4QgENBCAWHkVh
c3ktUlNBIEdlbmVyYXRlZCBDZXJ0aWZpY2F0ZTAdBgNVHQ4EFgQUdA4JxEYgmITI
8Xu6CK9jfg35Wq4wgdYGA1UdIwSBzjCBy4AUyKfJM2HjuuTadAmcgeTdai8DupGh
gaekgaQwgaExCzAJBgNVBAYTAkRFMQwwCgYDVQQIEwNOUlcxFDASBgNVBAcTC0R1
ZXNzZWxkb3JmMRcwFQYDVQQKEw5XSVItTUFDSEVOLURBUzEbMBkGA1UEAxMSVlBO
LVNlcnZlcjEtRGViaWFuMRQwEgYDVQQpEwtWUE4tU2VydmVyMTEiMCAGCSqGSIb3
DQEJARYTbm9jQHdpci1tYWNoZW4tZC5hc4IJAKu79hyW37PiMBMGA1UdJQQMMAoG
CCsGAQUFBwMCMAsGA1UdDwQEAwIHgDAYBgNVHREEETAPgg1jbGllbnRBbmRyb2lk
MA0GCSqGSIb3DQEBCwUAA4IBAQB+vgskUtNbu/d0y+HgG54alI/MAh/CZgwx7A9F
nRXD1qTfGtSs07CpGhz6jpoWCZmN/+5ILu4Dda+/ezdZX0o8J97LtkLnRyymL9e3
rqNtsXYAAIK0nuF2WMuyPgeueVOD8uC6nzGl3CHNwX+UZfmp/hA41rxR5jeAPrlk
9DSKv9ywLC/V4SMFV3Q046+u3NJcqH3FJ65UhqzVw5QeKJUOFB4BfWSgiIxG7JKR
/N0Mqc+OxbiQJxV5UInh1+hwx2aBV4XwzE9vuRy4UnsHhFIkQbZ7tDHKlKC48g+M
DWi97eTo7GNzyRVQ+OFSCQf+wy5w2EApLd09X5jnHX+xblBV
-----END CERTIFICATE-----
