Certificate:
    Data:
        Version: 3 (0x2)
        Serial Number: 1 (0x1)
    Signature Algorithm: sha256WithRSAEncryption
        Issuer: C=DE, ST=NRW, L=Duesseldorf, O=WIR-MACHEN-DAS, CN=VPN-Server1-Debian/name=VPN-Server1/emailAddress=noc@wir-machen-d.as
        Validity
            Not Before: May 20 11:15:06 2015 GMT
            Not After : May 17 11:15:06 2025 GMT
        Subject: C=DE, ST=NRW, L=Duesseldorf, O=WIR-MACHEN-DAS, CN=VPN-Server1-Debian/name=VPN-Server1/emailAddress=noc@wir-machen-d.as
        Subject Public Key Info:
            Public Key Algorithm: rsaEncryption
                Public-Key: (2048 bit)
                Modulus:
                    00:cd:dc:e8:54:9a:7a:2b:48:86:64:17:a9:e1:42:
                    ae:e9:8f:d9:01:9c:3b:b0:36:5e:6b:60:a2:86:df:
                    46:34:7f:6f:08:61:06:7c:35:c1:cc:ac:56:ae:b7:
                    3b:1e:6e:f1:88:68:ef:cc:e2:bf:45:b3:ee:0d:56:
                    8f:ba:db:c9:03:e0:da:58:b5:29:c7:37:8c:9d:78:
                    54:7b:3e:60:49:9d:80:2e:a0:0d:aa:23:86:12:0a:
                    2e:fb:8f:f7:e5:4d:f0:12:05:ec:9d:a8:39:58:f5:
                    f8:4d:2b:c7:66:58:4a:2e:9c:5f:20:29:7f:97:14:
                    24:5f:6e:c3:04:62:cf:47:08:b9:f8:1c:e4:83:81:
                    1f:39:27:a8:e6:a1:a3:95:49:33:9c:d3:7b:4c:f0:
                    ef:b1:5b:bb:7e:7a:47:56:32:1b:ea:77:c1:16:86:
                    5e:c5:1f:43:3a:4d:71:39:2d:7c:ae:53:45:e1:bb:
                    b4:22:db:96:86:9c:db:fe:cc:78:07:82:09:94:23:
                    45:80:11:2e:69:d1:78:23:a6:eb:e6:45:d2:e3:4c:
                    0a:ee:5b:af:7d:5d:29:1c:24:db:30:bd:09:e1:dd:
                    33:3c:4b:64:fc:61:0b:4c:d8:af:ae:52:21:47:a2:
                    f3:09:4e:3e:16:c2:f8:ce:d5:8a:32:37:26:9c:e7:
                    c2:e5
                Exponent: 65537 (0x10001)
        X509v3 extensions:
            X509v3 Basic Constraints: 
                CA:FALSE
            Netscape Cert Type: 
                SSL Server
            Netscape Comment: 
                Easy-RSA Generated Server Certificate
            X509v3 Subject Key Identifier: 
                A9:E9:F5:28:CB:23:CE:05:FB:20:9A:E0:31:8C:0F:FA:B0:53:84:4C
            X509v3 Authority Key Identifier: 
                keyid:C8:A7:C9:33:61:E3:BA:E4:DA:74:09:9C:81:E4:DD:6A:2F:03:BA:91
                DirName:/C=DE/ST=NRW/L=Duesseldorf/O=WIR-MACHEN-DAS/CN=VPN-Server1-Debian/name=VPN-Server1/emailAddress=noc@wir-machen-d.as
                serial:AB:BB:F6:1C:96:DF:B3:E2

            X509v3 Extended Key Usage: 
                TLS Web Server Authentication
            X509v3 Key Usage: 
                Digital Signature, Key Encipherment
            X509v3 Subject Alternative Name: 
                DNS:VPN-Server1-Debian
    Signature Algorithm: sha256WithRSAEncryption
         0d:e3:99:34:e3:e2:dc:38:ae:55:9d:91:ea:cf:32:aa:87:01:
         49:0c:ab:c2:e6:d8:7b:9d:14:91:09:f8:46:4e:fe:34:3b:2d:
         d1:20:f9:76:0e:74:97:90:b0:3e:d2:b8:c9:8b:9a:63:81:a8:
         8a:ae:2f:a5:a5:9f:4c:c3:a8:4e:7f:8d:f0:18:dd:6d:74:51:
         47:ba:01:0a:33:81:eb:dd:4d:f8:18:10:43:29:2f:37:db:3a:
         e1:6b:63:00:d9:16:6e:96:fc:32:f0:26:be:1d:c8:25:0f:83:
         54:01:fc:83:7c:3d:05:bc:2e:76:2a:5b:26:71:95:8c:99:85:
         ea:2b:d0:1e:b0:50:c9:63:6f:b0:e3:c8:7e:a4:43:3e:dc:a2:
         e6:23:94:6d:3e:4f:9c:8a:41:5d:f8:8d:44:a4:05:db:91:a7:
         d6:bf:50:b1:2b:75:57:a2:0c:73:45:92:65:c2:58:88:8e:f0:
         b9:00:46:6b:09:e1:00:ad:6c:90:30:84:70:84:62:51:09:d2:
         17:34:c6:90:a9:a9:2e:1f:7e:9a:1b:b3:aa:37:2d:13:92:12:
         67:a4:23:66:ec:cd:a5:67:83:0b:86:89:4c:47:7a:34:3c:10:
         a1:70:a7:39:8a:0c:73:93:05:c8:5d:75:71:bf:6e:f1:80:df:
         8f:c2:35:58
-----BEGIN CERTIFICATE-----
MIIFUjCCBDqgAwIBAgIBATANBgkqhkiG9w0BAQsFADCBoTELMAkGA1UEBhMCREUx
DDAKBgNVBAgTA05SVzEUMBIGA1UEBxMLRHVlc3NlbGRvcmYxFzAVBgNVBAoTDldJ
Ui1NQUNIRU4tREFTMRswGQYDVQQDExJWUE4tU2VydmVyMS1EZWJpYW4xFDASBgNV
BCkTC1ZQTi1TZXJ2ZXIxMSIwIAYJKoZIhvcNAQkBFhNub2NAd2lyLW1hY2hlbi1k
LmFzMB4XDTE1MDUyMDExMTUwNloXDTI1MDUxNzExMTUwNlowgaExCzAJBgNVBAYT
AkRFMQwwCgYDVQQIEwNOUlcxFDASBgNVBAcTC0R1ZXNzZWxkb3JmMRcwFQYDVQQK
Ew5XSVItTUFDSEVOLURBUzEbMBkGA1UEAxMSVlBOLVNlcnZlcjEtRGViaWFuMRQw
EgYDVQQpEwtWUE4tU2VydmVyMTEiMCAGCSqGSIb3DQEJARYTbm9jQHdpci1tYWNo
ZW4tZC5hczCCASIwDQYJKoZIhvcNAQEBBQADggEPADCCAQoCggEBAM3c6FSaeitI
hmQXqeFCrumP2QGcO7A2XmtgoobfRjR/bwhhBnw1wcysVq63Ox5u8Yho78ziv0Wz
7g1Wj7rbyQPg2li1Kcc3jJ14VHs+YEmdgC6gDaojhhIKLvuP9+VN8BIF7J2oOVj1
+E0rx2ZYSi6cXyApf5cUJF9uwwRiz0cIufgc5IOBHzknqOaho5VJM5zTe0zw77Fb
u356R1YyG+p3wRaGXsUfQzpNcTktfK5TReG7tCLbloac2/7MeAeCCZQjRYARLmnR
eCOm6+ZF0uNMCu5br31dKRwk2zC9CeHdMzxLZPxhC0zYr65SIUei8wlOPhbC+M7V
ijI3JpznwuUCAwEAAaOCAZEwggGNMAkGA1UdEwQCMAAwEQYJYIZIAYb4QgEBBAQD
AgZAMDQGCWCGSAGG+EIBDQQnFiVFYXN5LVJTQSBHZW5lcmF0ZWQgU2VydmVyIENl
cnRpZmljYXRlMB0GA1UdDgQWBBSp6fUoyyPOBfsgmuAxjA/6sFOETDCB1gYDVR0j
BIHOMIHLgBTIp8kzYeO65Np0CZyB5N1qLwO6kaGBp6SBpDCBoTELMAkGA1UEBhMC
REUxDDAKBgNVBAgTA05SVzEUMBIGA1UEBxMLRHVlc3NlbGRvcmYxFzAVBgNVBAoT
DldJUi1NQUNIRU4tREFTMRswGQYDVQQDExJWUE4tU2VydmVyMS1EZWJpYW4xFDAS
BgNVBCkTC1ZQTi1TZXJ2ZXIxMSIwIAYJKoZIhvcNAQkBFhNub2NAd2lyLW1hY2hl
bi1kLmFzggkAq7v2HJbfs+IwEwYDVR0lBAwwCgYIKwYBBQUHAwEwCwYDVR0PBAQD
AgWgMB0GA1UdEQQWMBSCElZQTi1TZXJ2ZXIxLURlYmlhbjANBgkqhkiG9w0BAQsF
AAOCAQEADeOZNOPi3DiuVZ2R6s8yqocBSQyrwubYe50UkQn4Rk7+NDst0SD5dg50
l5CwPtK4yYuaY4Goiq4vpaWfTMOoTn+N8BjdbXRRR7oBCjOB691N+BgQQykvN9s6
4WtjANkWbpb8MvAmvh3IJQ+DVAH8g3w9BbwudipbJnGVjJmF6ivQHrBQyWNvsOPI
fqRDPtyi5iOUbT5PnIpBXfiNRKQF25Gn1r9QsSt1V6IMc0WSZcJYiI7wuQBGawnh
AK1skDCEcIRiUQnSFzTGkKmpLh9+mhuzqjctE5ISZ6QjZuzNpWeDC4aJTEd6NDwQ
oXCnOYoMc5MFyF11cb9u8YDfj8I1WA==
-----END CERTIFICATE-----
