Certificate:
    Data:
        Version: 3 (0x2)
        Serial Number: 1 (0x1)
    Signature Algorithm: sha256WithRSAEncryption
        Issuer: C=DE, ST=NRW, L=Duesseldorf, O=WIR-MACHEN-DAS, CN=VPN-Server2-Debian/name=VPN-Server2/emailAddress=noc@wir-machen-d.as
        Validity
            Not Before: May 19 10:52:33 2015 GMT
            Not After : May 16 10:52:33 2025 GMT
        Subject: C=DE, ST=NRW, L=Duesseldorf, O=WIR-MACHEN-DAS, CN=VPN-Server2-Debian/name=VPN-Server2/emailAddress=noc@wir-machen-d.as
        Subject Public Key Info:
            Public Key Algorithm: rsaEncryption
                Public-Key: (2048 bit)
                Modulus:
                    00:fa:0a:cb:4f:3c:05:ff:13:72:ed:17:5c:bd:bb:
                    3c:93:c9:da:81:05:e7:a8:f4:78:8f:c0:20:99:39:
                    0e:be:31:d4:1b:03:22:87:5a:8d:8e:0f:d7:43:b0:
                    78:b4:e0:c0:30:a1:d9:b8:85:1c:bc:42:21:dd:d0:
                    42:44:e1:2b:0d:59:6e:db:3e:19:69:52:67:d7:08:
                    9d:ed:e2:e8:d2:a6:97:50:c5:82:22:64:61:a1:ea:
                    8a:fe:72:22:d7:c4:0d:01:c8:9f:79:a5:71:58:d8:
                    ce:d1:b8:15:e3:0e:54:07:60:dd:83:b9:36:ca:6a:
                    5b:b4:a9:1f:b1:7f:3a:87:97:dc:ce:bf:6d:3f:a0:
                    2b:18:65:94:12:9a:9b:72:32:a3:54:f1:1e:47:bb:
                    f7:8a:9e:d2:20:cd:4e:5e:f7:68:a6:49:a2:4b:8c:
                    cb:5c:a9:9f:f0:17:27:45:a3:59:6a:7a:5f:b8:57:
                    95:5a:aa:98:5b:d1:2e:06:42:98:aa:01:66:5b:bf:
                    72:a0:05:f7:5c:2e:87:a4:3c:cf:84:ac:44:50:87:
                    44:fb:7d:e3:22:32:7f:a7:be:1b:98:10:21:02:d9:
                    d9:c0:7c:24:04:dd:df:e6:d9:27:c7:18:79:73:a3:
                    17:76:c3:2b:07:d9:cc:ec:1e:09:cb:f6:4b:40:41:
                    0e:51
                Exponent: 65537 (0x10001)
        X509v3 extensions:
            X509v3 Basic Constraints: 
                CA:FALSE
            Netscape Cert Type: 
                SSL Server
            Netscape Comment: 
                Easy-RSA Generated Server Certificate
            X509v3 Subject Key Identifier: 
                FF:20:F4:DC:F3:EB:48:B8:0F:6F:63:E8:3E:F8:A7:9C:09:E0:C6:54
            X509v3 Authority Key Identifier: 
                keyid:39:09:E1:9F:30:8A:1C:71:E9:75:97:A1:26:33:91:E4:78:F4:89:3D
                DirName:/C=DE/ST=NRW/L=Duesseldorf/O=WIR-MACHEN-DAS/CN=VPN-Server2-Debian/name=VPN-Server2/emailAddress=noc@wir-machen-d.as
                serial:B0:7E:E6:1D:06:6F:5C:42

            X509v3 Extended Key Usage: 
                TLS Web Server Authentication
            X509v3 Key Usage: 
                Digital Signature, Key Encipherment
            X509v3 Subject Alternative Name: 
                DNS:VPN-Server2-Debian
    Signature Algorithm: sha256WithRSAEncryption
         42:a3:df:94:8f:40:8d:de:47:f5:c5:26:18:06:b5:bc:1a:2d:
         b2:b9:0c:38:be:58:40:7d:fa:87:e5:ec:ae:d1:4c:6d:09:ca:
         00:80:16:d4:33:67:d2:e3:da:78:ff:97:c9:a4:3f:1b:21:79:
         49:97:b6:71:5f:23:62:16:62:72:e6:44:c0:d3:12:bc:68:5a:
         fe:e7:b4:43:7b:4f:1e:d8:9f:75:47:35:ce:0e:cf:15:22:51:
         b0:04:04:44:51:8a:3f:9f:b9:f8:00:0a:25:18:3c:eb:ea:2a:
         d9:73:ee:b8:a8:31:12:ac:5f:23:c1:88:92:f3:8c:27:ec:ca:
         f3:a1:bc:f5:aa:e1:e6:16:85:61:b8:48:07:28:9e:77:b4:e3:
         c7:4a:07:26:cd:0d:78:f9:c6:09:0e:14:da:8e:80:b3:1d:e2:
         3c:d1:d1:ce:0c:6f:9b:ba:f5:fb:d0:21:b6:14:1a:c5:49:7f:
         8e:6e:57:61:e5:38:13:e8:f4:8c:d2:04:a9:59:ea:7c:dc:00:
         30:96:91:16:97:dd:e8:ca:2e:3d:4f:74:88:36:d7:ef:cd:36:
         3f:ac:48:97:a7:bb:de:cf:22:c5:d2:25:89:be:e9:5d:3d:a6:
         6a:5a:3f:2c:df:8c:09:1c:e2:91:58:03:70:aa:cf:6b:39:a5:
         e1:e9:b1:10
-----BEGIN CERTIFICATE-----
MIIFUjCCBDqgAwIBAgIBATANBgkqhkiG9w0BAQsFADCBoTELMAkGA1UEBhMCREUx
DDAKBgNVBAgTA05SVzEUMBIGA1UEBxMLRHVlc3NlbGRvcmYxFzAVBgNVBAoTDldJ
Ui1NQUNIRU4tREFTMRswGQYDVQQDExJWUE4tU2VydmVyMi1EZWJpYW4xFDASBgNV
BCkTC1ZQTi1TZXJ2ZXIyMSIwIAYJKoZIhvcNAQkBFhNub2NAd2lyLW1hY2hlbi1k
LmFzMB4XDTE1MDUxOTEwNTIzM1oXDTI1MDUxNjEwNTIzM1owgaExCzAJBgNVBAYT
AkRFMQwwCgYDVQQIEwNOUlcxFDASBgNVBAcTC0R1ZXNzZWxkb3JmMRcwFQYDVQQK
Ew5XSVItTUFDSEVOLURBUzEbMBkGA1UEAxMSVlBOLVNlcnZlcjItRGViaWFuMRQw
EgYDVQQpEwtWUE4tU2VydmVyMjEiMCAGCSqGSIb3DQEJARYTbm9jQHdpci1tYWNo
ZW4tZC5hczCCASIwDQYJKoZIhvcNAQEBBQADggEPADCCAQoCggEBAPoKy088Bf8T
cu0XXL27PJPJ2oEF56j0eI/AIJk5Dr4x1BsDIodajY4P10OweLTgwDCh2biFHLxC
Id3QQkThKw1Zbts+GWlSZ9cIne3i6NKml1DFgiJkYaHqiv5yItfEDQHIn3mlcVjY
ztG4FeMOVAdg3YO5NspqW7SpH7F/OoeX3M6/bT+gKxhllBKam3Iyo1TxHke794qe
0iDNTl73aKZJokuMy1ypn/AXJ0WjWWp6X7hXlVqqmFvRLgZCmKoBZlu/cqAF91wu
h6Q8z4SsRFCHRPt94yIyf6e+G5gQIQLZ2cB8JATd3+bZJ8cYeXOjF3bDKwfZzOwe
Ccv2S0BBDlECAwEAAaOCAZEwggGNMAkGA1UdEwQCMAAwEQYJYIZIAYb4QgEBBAQD
AgZAMDQGCWCGSAGG+EIBDQQnFiVFYXN5LVJTQSBHZW5lcmF0ZWQgU2VydmVyIENl
cnRpZmljYXRlMB0GA1UdDgQWBBT/IPTc8+tIuA9vY+g++KecCeDGVDCB1gYDVR0j
BIHOMIHLgBQ5CeGfMIoccel1l6EmM5HkePSJPaGBp6SBpDCBoTELMAkGA1UEBhMC
REUxDDAKBgNVBAgTA05SVzEUMBIGA1UEBxMLRHVlc3NlbGRvcmYxFzAVBgNVBAoT
DldJUi1NQUNIRU4tREFTMRswGQYDVQQDExJWUE4tU2VydmVyMi1EZWJpYW4xFDAS
BgNVBCkTC1ZQTi1TZXJ2ZXIyMSIwIAYJKoZIhvcNAQkBFhNub2NAd2lyLW1hY2hl
bi1kLmFzggkAsH7mHQZvXEIwEwYDVR0lBAwwCgYIKwYBBQUHAwEwCwYDVR0PBAQD
AgWgMB0GA1UdEQQWMBSCElZQTi1TZXJ2ZXIyLURlYmlhbjANBgkqhkiG9w0BAQsF
AAOCAQEAQqPflI9Ajd5H9cUmGAa1vBotsrkMOL5YQH36h+XsrtFMbQnKAIAW1DNn
0uPaeP+XyaQ/GyF5SZe2cV8jYhZicuZEwNMSvGha/ue0Q3tPHtifdUc1zg7PFSJR
sAQERFGKP5+5+AAKJRg86+oq2XPuuKgxEqxfI8GIkvOMJ+zK86G89arh5haFYbhI
Byied7Tjx0oHJs0NePnGCQ4U2o6Asx3iPNHRzgxvm7r1+9AhthQaxUl/jm5XYeU4
E+j0jNIEqVnqfNwAMJaRFpfd6MouPU90iDbX7802P6xIl6e73s8ixdIlib7pXT2m
alo/LN+MCRzikVgDcKrPazml4emxEA==
-----END CERTIFICATE-----
